(lp0
VRT @olindata: Need to get past perceived shortcomings in #Nagios? Set up #Icinga2 on #Debian!\u000ahttp://t.co/XNS3IXGFPO #opensource #Incinga #\u2026
p1
aVRT @debian: @wberg08 @brycesteinhoff We don't discriminate per our Social Contract. You can be non-human and without a job to use #Debian t\u2026
p2
aVHow to fully rebrand SparkyLinux http://t.co/51moN2FJ6C #linux #debian #sparky
p3
aVRT @debian: @wberg08 @brycesteinhoff We don't discriminate per our Social Contract. You can be non-human and without a job to use #Debian t\u2026
p4
aVRT @debian: @wberg08 @brycesteinhoff We don't discriminate per our Social Contract. You can be non-human and without a job to use #Debian t\u2026
p5
aVRT @olindata: Need to get past perceived shortcomings in #Nagios? Set up #Icinga2 on #Debian!\u000ahttp://t.co/XNS3IXGFPO #opensource #Incinga #\u2026
p6
aV@wberg08 @brycesteinhoff We don't discriminate per our Social Contract. You can be non-human and without a job to use #Debian too.
p7
aVRT @olindata: Need to get past perceived shortcomings in #Nagios? Set up #Icinga2 on #Debian!\u000ahttp://t.co/XNS3IXGFPO #opensource #Incinga #\u2026
p8
aVRT @olindata: Need to get past perceived shortcomings in #Nagios? Set up #Icinga2 on #Debian!\u000ahttp://t.co/XNS3IXGFPO #opensource #Incinga #\u2026
p9
aVNeed to get past perceived shortcomings in #Nagios? Set up #Icinga2 on #Debian!\u000ahttp://t.co/XNS3IXGFPO #opensource #Incinga #tech
p10
aVPSAD http://t.co/ecTJ1hLlLQ  #debian #intrusiondetection #linux #network #psad #ubuntu #unix
p11
aV#Debian package kconfig_5.6.0-1_amd64.changes has been marked for ACCEPT by #ftpmaster
p12
aVRT @jazzydag: New #Debian code names: Stretch (Jessie+1) and Buster. The octopus and the dog from Toy Story, great !!
p13
aVjust now upgraded #iceweasel package on my #debian system..
p14
aV#Debian package iceweasel_36.0-1_amd64.changes has been marked for ACCEPT by #ftpmaster
p15
aVSwitched to #Debian on VPS.
p16
aV3yrs ago I sent mail to apt developers with BUG/ISSUE about Tomcat7 symlink etc. They answer me! Right now! :) 3 years? #debian #tomcat7
p17
aVInstallare ONLYOFFICE in Ubuntu http://t.co/paEEMKH6vH #debian #guide #linux #office #repository #server #ubuntu
p18
aV@Ansible: #LXC role updated for Jessie #debian https://t.co/F0UtP3xlVU
p19
aVXFCE HD Desktop of The MirandaSoft PC. #Debian #Linux #AMD64 #Philippines http://t.co/HtFfP5UVlp
p20
aVRT @ms_keira: Oooh, shiny new Grub boot and an updated #Debian Jessie ... nice
p21
aVOooh, shiny new Grub boot and an updated #Debian Jessie ... nice
p22
aVDefeating GHOST on old glibc implementations http://t.co/YcCs4ZZEee #analysis #Code #Debian #Security #Ubuntu
p23
aVGetting familiar with my #cinnamon2 'material' desktop ok #debian :-p http://t.co/tuPy77xsPa
p24
aVMy #BeagleBoneBlack Text-Based Brag Screen (TBBS) for February 25, 2015. #Debian #Linux #Embedded #Philippines http://t.co/vcx8UWHvWJ
p25
aVRT @Neustradamus: #Tails 1.3 has been released (#Debian/#Tor) http://t.co/Yjo7UkJuiw
p26
aV#Tails 1.3 has been released (#Debian/#Tor) http://t.co/Yjo7UkJuiw
p27
aVSoftware raid on #Debian is becoming such a pain.
p28
aVRT @tiganajbitch: I am about 90% sure that tomorrow is going to have to be spent rebuilding my operating system. #kali #linux #debian #ugh \u2026
p29
aVWe compared #centos vs #debian - see results: http://t.co/FRenqF55sL
p30
aVI am about 90% sure that tomorrow is going to have to be spent rebuilding my operating system. #kali #linux #debian #ugh #iloveitreally
p31
aVRT @newgoliath: @zehicle @OpenCrowbar my favorite #Linux, #Debian is now deployable!! Awesome!
p32
aV@zehicle @OpenCrowbar my favorite #Linux, #Debian is now deployable!! Awesome!
p33
aV16GB Transcend Flashdrive:\u000a#Widows 7 struggles to mount it.\u000a#Debian mounts instantly (automount or manual).\u000a.: Windows drivers suck
p34
aV#APT 1.0.9.7 has been released (#Debian) https://t.co/5MtodI2JNM
p35
aVUpdating the system, samba patch. #security #update #patch #debian #Linux #samba http://t.co/vKlsWgPX3l
p36
aVThis is how you can reset your RaspberryPi password without re-installing #RaspberryPi #Linux #GNU #debian #Tricks http://t.co/nduV3SLosb
p37
aVRT @Insta_RaspPi: http://t.co/nOfD2XDBpg - Coming soon :) #beaglebone #raspberrypi #bbb #debian #remotecon\u2026 http://t.co/t6DUXP9UIJ http://t\u2026
p38
aV#bower #npm #composer #gem #homebrew package manager fever ! all thanks to #Debian #apt . Probably one of the the best #Linux contribution
p39
aV#bower #npm #composer #gem #homebrew package manager fever ! all thanks to #Debian #apt . Probably one of the the best #Linux contribution
p40
aVRT @phoronix: #Linux #openSUSE Tumbleweed vs. #Manjaro vs. #Debian 8.0 vs. #Fedora 21 vs. #Ubuntu 14.10 http://t.co/W1myBh7zS5 http://t.co/\u2026
p41
aVUbuntu and Debian Package Management Essentials. #Ubuntu #Debian #DigitalOcean http://t.co/o1q4fVDm4a
p42
aV#Linux #openSUSE Tumbleweed vs. #Manjaro vs. #Debian 8.0 vs. #Fedora 21 vs. #Ubuntu 14.10 http://t.co/W1myBh7zS5 http://t.co/PWU8hhe8MQ
p43
aV#Debian 8 Jessie is going to be my main OS from now on I think &lt;3
p44
aV#Debian package ruby-capture-output_1.0.0-1_i386.changes has been marked for ACCEPT by #ftpmaster
p45
aV#Debian package python-django-mptt_0.6.1-1_i386.changes has been marked for ACCEPT by #ftpmaster
p46
aV#Debian package plasma-workspace-wallpapers_5.2.0-1_amd64.changes has been marked for ACCEPT by #ftpmaster
p47
aV#Debian package pidgin-gnome-keyring_2.0-1_amd64.changes has been marked for ACCEPT by #ftpmaster
p48
aV#Debian package opendkim_2.10.1-1_amd64.changes has been marked for ACCEPT by #ftpmaster
p49
aV#Debian package mate-tweak_3.4.3-1_amd64.changes has been marked for ACCEPT by #ftpmaster
p50
aV#Debian package libcutl_1.9.0+ds1-1_amd64.changes has been marked for ACCEPT by #ftpmaster
p51
aV#Debian package ki18n_5.6.0-1_amd64.changes has been marked for ACCEPT by #ftpmaster
p52
aV#Debian package kglobalaccel_5.6.0-1_amd64.changes has been marked for ACCEPT by #ftpmaster
p53
aV#Debian package kcodecs_5.6.0-1_amd64.changes has been marked for ACCEPT by #ftpmaster
p54
aV#Debian package homesick_1.1.2-2_i386.changes has been marked for ACCEPT by #ftpmaster
p55
aV#Debian package homesick_1.1.2-1_i386.changes has been marked for ACCEPT by #ftpmaster
p56
aV#Debian package haskell-wl-pprint-terminfo_3.7.1.3-1_amd64.changes has been marked for ACCEPT by #ftpmaster
p57
aV#Debian package haskell-wl-pprint-extras_3.5.0.4-1_amd64.changes has been marked for ACCEPT by #ftpmaster
p58
aV#Debian package gpsd_3.12-1_amd64.changes has been marked for ACCEPT by #ftpmaster
p59
aVHow to mount a hard disk as read-only from the terminal #Ubuntu #Debian #TerminalBasics http://t.co/Ek901zwv68
p60
aVNou driver de ATI-3850 disponible per GNU/Linux http://t.co/BE73wuCYym #Debian #GNU/Linux
p61
aVso meta: I suspect I found a bug in reportbug, so I can't use reportbug to report the bug in reportbug. Fun. #debian
p62
aV.@SGgrc "Debian on track to prove binaries' origins" http://t.co/6eCCrUPCeM #Debian #Linux #opensource
p63
aVLooks like "Betsy" is coming quite soon. http://t.co/HZrWvoytOK #LinuxMint #debian
p64
aV#Debian on track to prove binaries' origins  http://t.co/DMzjfZUSwx http://t.co/KpM02KOvqN
p65
aV#mempo #linux project seems to be down, #Debian, I'm getting worried.
p66
aVThe latest snapshoot of the #VivaldiBrowser works perfect on #debian jessie. (64bit)\u000a\u000aGreat Work. Thanks\u000a@vivaldibrowser
p67
aV#grsecurity and #grub expect some rough edges using #mempo project in #debian, update-grub breaking. See the mempo page for doc.
p68
aVExecute custom script when an interface gets connected http://t.co/orclpo2zou #debian #gnu #linux
p69
aVLast weekend I betrayed #Debian by installing #Ubuntu on my desktop PC. #Unity is crap. Fortunately I could install #MATE.
p70
aV~ #uptime \u000a13:43:00 up 375 days,  3:47,  1 user,  load average: 0.22, 0.40, 0.39\u000a\u000a#woohoo #happy #debian #server
p71
aVRT @LinuxScoop: Kali Linux 1.1.0 moto based on #debian 7 with #gnome 3.4.2 - http://t.co/TFp5tnrouz @kalilinux @offsectraining @exploitdb @\u2026
p72
aVSimple How-To for BIRD routing - #OSPF \u2014 My Notes! http://t.co/8T2dPaiGdV\u000a#linux #routing #debian #bird #opensource
p73
aVGoodnight my hunny bunny sweety, Debian.\u000aHappy UKK! Fighting! :D\u000a#AtSchool #Debian #Success #UKK\u2026 https://t.co/S3WhpGjqrF
p74
aV"Has Linux lost its way?" comments prompt Debian developer to revisit FreeBSD after 20 years #Linux #Debian #FreeBSD http://t.co/2rKoIpuFk2
p75
aV#Debian on track to prove binaries' origins http://t.co/eyfweTMruG #sotware #technews
p76
aVKali Linux 1.1.0 moto based on #debian 7 with #gnome 3.4.2 - http://t.co/TFp5tnrouz @kalilinux @offsectraining @exploitdb @debian
p77
aVhttp://t.co/nOfD2XDBpg - Coming soon :) #beaglebone #raspberrypi #bbb #debian #remotecon\u2026 http://t.co/t6DUXP9UIJ http://t.co/0LSZNRRLP1
p78
aV#Cubietruck now running #Debian http://t.co/QvbsATjgu7
p79
aVDebian on track to prove binaries' origins http://t.co/ZxhKiQE8oV #debian #gnu #linux
p80
aVRT @LinuxForYou: #Debian Jessie Installer Out With Its First Release Candidate http://t.co/rCfO12Og4u
p81
aVDSA-3170 linux (security update) | More details: http://t.co/xVJjQUFevg #debian #advisory
p82
aVBlack Lab Linux "MATE" 6.1 https://t.co/xXpgqy5Rgb #Linux #blacklab #Debian #Ubuntu
p83
aV#linux #Debian #Manuallinux Instalar smart tools en Debian - http://t.co/wiLXZfobOL
p84
aVRT @LinuxForYou: #Debian Jessie Installer Out With Its First Release Candidate http://t.co/rCfO12Og4u
p85
aVRT @LinuxForYou: #Debian Jessie Installer Out With Its First Release Candidate http://t.co/rCfO12Og4u
p86
aV#Debian Jessie Installer Out With Its First Release Candidate http://t.co/rCfO12Og4u
p87
aVRT @debian: 83% of #Debian can already be built reproducibly, an important prereq for  #security! https://t.co/umpRvzwsh4
p88
aV#Cubietruck now running #Debian :) http://t.co/lMVPUgZrOb
p89
aVMy #BeagleBoneBlack now runs #Linux #Kernel 4.0.0-rc1. #Debian #Philippines http://t.co/FP2TXzhfGC
p90
aVHi @online_en, I want to run the Debian image on your cloud http://t.co/6HYMSFf2rc #armcloud #debian
p91
aVDebian 7 + KDE + Cairo Dock looks good :) #Debian #KDE #Cairo-Dock
p92
aV#linux #CentOS #Debian #Trucoslinux #Ubuntu Cargar drivers SCSI en linux - http://t.co/Y6SRhWO7Gc
p93
aVNow running #Debian 8 "Jessie" #Linux with #Kernel 4.0.0-rc1-mirandasoft Freshly Compiled in the #Philippines! #AMD64 #PowerPC @pdp7
p94
aVcreate deb package from tar.gz http://t.co/skd9MuYGnz #Debian
p95
aV@ibmsystemsbps @IBMSystemsISVs @ibmpowerlinux #POWER8 is a rocket for all #Linux fan, just waiting for #Debian support? Possible? soon ?
p96
aV#Debian #Security #Advisory for #Kernel and #Glibc. Sounds like #Infrastructure Reboot and lot of fun! #DSA
p97
aVMy #owncloud installation crashed again after last apt-get update #debian. #wtf
p98
aVThe best way to get gnu out of Linux is systemd #debian
p99
aVHow to fix: boot into rescue mode as root; apt-get install grub; grub-update; grub-install /dev/locationOfMBR #Debian
p100
aV#grub and #lilo don't get along. Lilo is in deed a hoochie mama. #Debian
p101
aVAdministrator Linux (w/m) w/ #Debian #Linux skills Germany @p2people http://t.co/HcIyc87QTt
p102
aVsystemd is a weed. Soon it will overtake the garden, and then the gardner will stand back and say, "well shit." #debian #linux.
p103
aVDSA-3171 samba (security update) | More details: http://t.co/Ley6GoyjXq #debian #advisory
p104
aVWe compared #debian vs #ubuntuserver - see results: http://t.co/ZxFQVzRQU1
p105
aVMySQL in #Debian: mysql-5.5 5.5.42-1 MIGRATED to testing (Britney): [2015-02-23] mysql-5.5 5.5.42-1 MIGRATED t... http://t.co/rNa9fOhkSh
p106
aVDebian on track to prove binaries' origins http://t.co/PTGHQypk58 via @theregister\u000a#Debian #Infosec #LinuxGenome?
p107
aV#Debian package presentty_0.1.1-1_amd64.changes has been marked for ACCEPT by #ftpmaster
p108
aV#Debian package papi_5.4.0-1_i386.changes has been marked for ACCEPT by #ftpmaster
p109
a.