(lp0
VRHSA-2015:0265-1: Critical: firefox security update http://t.co/Z7SvimQKWa #InformationSecurity #redhat #Vulnerability #WebBrowser
p1
aV#RedHat moves are puzzling as the market has shifted.
p2
aVRT @EMEACloudGuy: That day your favourite legal counsel rejoins #redhat. That would be today then @richardfontana
p3
aVRT @EMEACloudGuy: That day your favourite legal counsel rejoins #redhat. That would be today then @richardfontana
p4
aVVideo on how red hat redefines cloud storage, very exciting! #cloud #storage #redhat #ceph https://t.co/oAlmVlHOqz
p5
aVThat day your favourite legal counsel rejoins #redhat. That would be today then @richardfontana
p6
aVRT @Chilli_IT: #IBM and #RedHat power up for virtualisation on Power systems http://t.co/P4aq4XyFw1  #linux #CES2015 #ubuntu #mariadb #powe\u2026
p7
aV#IBM and #RedHat power up for virtualisation on Power systems http://t.co/P4aq4XyFw1  #linux #CES2015 #ubuntu #mariadb #powerlinux #bigdata
p8
aVRed Hat tackles cloud with Enterprise Virtualization 3.5 #redhat #cloud #opensource #vmware #virtualization #rhev http://t.co/33vX1qLLNh
p9
aVOpenStack Platform Release Builds on Ceph #openstack #cloud #redhat #ceph #storage #opensource http://t.co/mdDqPTbuI6
p10
aVOpen Stack was the order of the day at #IntegraTechnologies #RedingtonValue event #RedHat User Group Forum Dubai http://t.co/lmqLEQVnxV
p11
aVRT @SSARecruit: #Contract opportunity for a #platform #engineer (#Redhat #Linux #PHP) #London Contact @Head_HunterIT for more info @UKBusin\u2026
p12
aVRT @SSARecruit: #Contract opportunity for a #platform #engineer (#Redhat #Linux #PHP) #London Contact @Head_HunterIT for more info @UKBusin\u2026
p13
aVRT @SSARecruit: 3 mth #contract opportunity for a #platform #engineer with skills in #Redhat #Linux #PHP - West #London Contact @Head_Hunte\u2026
p14
aVRT @SSARecruit: #Contract opportunity for a #platform #engineer with skills in #Redhat #Linux #PHP - #London Contact @Head_HunterIT for mor\u2026
p15
aVRT @SSARecruit: #Contract opportunity for a #platform #engineer (#Redhat #Linux #PHP) #London Contact @Head_HunterIT for more info @Londone\u2026
p16
aVRT @SSARecruit: #Contract opportunity for a #platform #engineer (#Redhat #Linux #PHP) #London Contact @Head_HunterIT for more info @promoti\u2026
p17
aVRT @SSARecruit: #Contract opportunity for a #platform #engineer (#Redhat #Linux #PHP) #London Contact @Head_HunterIT for more info @Promote\u2026
p18
aVRT @SSARecruit: #Contract opportunity for a #platform #engineer (#Redhat #Linux #PHP) #London Contact @Head_HunterIT for more info @BlueBiz\u2026
p19
aVRT @SSARecruit: #Contract opportunity for a #platform #engineer (#Redhat #Linux #PHP) #London Contact @Head_HunterIT for more info @UKBusin\u2026
p20
aVRT @RedHatMEA: What drives us to get started in #OpenSource ? What's your story? | http://t.co/wZvFdhnwUT #RedHat #Linux
p21
aVRT @RedHatMEA: What drives us to get started in #OpenSource ? What's your story? | http://t.co/wZvFdhnwUT #RedHat #Linux
p22
aVRT @SSARecruit: #Contract opportunity for a #platform #engineer (#Redhat #Linux #PHP) #London Contact @Head_HunterIT for more info @UKBusin\u2026
p23
aV#Contract opportunity for a #platform #engineer (#Redhat #Linux #PHP) #London Contact @Head_HunterIT for more info @UKBusinessRT
p24
aV#Contract opportunity for a #platform #engineer (#Redhat #Linux #PHP) #London Contact @Head_HunterIT for more info @BlueBizNetwork
p25
aV#Contract opportunity for a #platform #engineer (#Redhat #Linux #PHP) #London Contact @Head_HunterIT for more info @PromoteInLondon
p26
aV#Contract opportunity for a #platform #engineer (#Redhat #Linux #PHP) #London Contact @Head_HunterIT for more info @promotingUK
p27
aV#Contract opportunity for a #platform #engineer (#Redhat #Linux #PHP) #London Contact @Head_HunterIT for more info @Londonengland_a
p28
aVWhat drives us to get started in #OpenSource ? What's your story? | http://t.co/wZvFdhnwUT #RedHat #Linux
p29
aV#Contract opportunity for a #platform #engineer with skills in #Redhat #Linux #PHP - #London Contact @Head_HunterIT for more info #jobsearch
p30
aV3 mth #contract opportunity for a #platform #engineer with skills in #Redhat #Linux #PHP - West #London Contact @Head_HunterIT for more info
p31
aVKnow #Centos #Ubuntu #Redhat Extend your skill become #AWS certified. Our online course now 90% off and is only $19. http://t.co/utiS0PDsng
p32
aVWe compared #redhat vs #ubuntu - see results: http://t.co/vD6Jp3xWYx
p33
aV#redhat how can I disable the Red Hat Customer Portal notifications? \u000aecosystem/certification is starting to annoy me
p34
aVWhat\u2019s Moving in the World of POWER? http://t.co/f44iFgNEaQ #redhat #power #linux
p35
aVRT @DjangoGirlsBrno: Denise Dumas from @RedHatNews shares her story in engineering and open source with the girls. #djangogirls #redhat htt\u2026
p36
aVRT @RedHatJobs: Know someone who'd be a great Red Hatter? We're #hiring for the #RedHat summer #internship program! http://t.co/i13r99SfMs
p37
aVHmm is it possible to get addicted to an operating system? #Linux #RedHat #centOS #rasbian #raspberrypi
p38
aVThe page useful for today: http://t.co/CK6eP3TsSl #RedHat #Power
p39
aVFind out how to get your RHCA certification | http://t.co/a2DD7kfrhw #RedHat #OpenSource #Linux #JBoss #OpenStack #ITProfessional
p40
aVRT @tqvarnst: Don\u2019t pay extra for middleware when upgrading hardware http://t.co/FOyZoZiMsU by @naszcyniec #ibm #middleware #RedHat
p41
aVRT @TrainingIndia: Technology training calendar - India for March 2015 out now! Reach pankaj.chahal@hp.com with your enquiries on #ITIL. #R\u2026
p42
aVhttps://t.co/hkVsyzS3vX Webinar: Maximize the benefits of #DevOps with #PaaS and #ApplicationIntegration. #RedHat
p43
aVWhat is open hardware design worth? | http://t.co/ThZv6pMcxD #RedHat #OpenSource #OpenHardware
p44
aVRT @cyberparse: RHSA-2015:0263-1: Low: Red Hat Satellite #IBM Java... http://t.co/hW2yE2agP2 #InformationSecurity #Oracle #RedHat #redhat #\u2026
p45
aVRHSA-2015:0263-1: Low: Red Hat Satellite #IBM Java... http://t.co/hW2yE2agP2 #InformationSecurity #Oracle #RedHat #redhat #Vulnerability
p46
aVRT @alberttwong: Like more #RedHat in SoCal?   Join our meetup http://t.co/kiwK31ttx6  #SCALE13x #LA #OC #SD #OpenSource #PaaS #IaaS #Java \u2026
p47
aVHeads up, dear leader: Security hole found in North #Korea\u2019s home-grown OS - http://t.co/oyhGkXVjOW #RedHat #RedStar
p48
aVRT @cyberparse: RHBA-2015:0262-1: preupgrade-assistant-contents bug fix and enhancement update http://t.co/GBJSYkDmUY #redhat #Vulnerability
p49
aVRT @SunniesToo: Child's Bucket Hat - Colorblock http://t.co/rTU49h2Vzf #womaninbiz #RedHat
p50
aVMagnificent Red Gold and Purple Floral Brooch by AMagnificentMess http://t.co/fIyC4AGKmC via #Etsy #RedHat #teamlove #jewelry #vintage
p51
aV#RedHat Blog: #Samba &gt;= 3.5 vulnerable CVE-2015-0240  remote code exec possible &amp; no auth required. No PoC yet.    \u000ahttps://t.co/yajdtZjSPS
p52
aVChild's Bucket Hat - Colorblock http://t.co/rTU49h2Vzf #womaninbiz #RedHat
p53
aV#BigData. What's #RedHat got to do with it? https://t.co/Mw3mH3tsft @strataconf #bigdatasv @gregkleiman
p54
aV#linux #news Protect your severs, Get started with #SELinux using #Centos or #RedHat to secure your environments http://t.co/sGJ0nUOPL6
p55
aVStill no #RedHat #Linux on #Azure, but #VMware looks to be on its way | ZDNet http://t.co/tqSx2SlVgc
p56
aVStill no #RedHat Linux on Azure, but #VMware looks to be on its way http://t.co/lqDsDGe8Nt
p57
aVRT @xsgordon: A Closer Look at RHEL OpenStack Platform 6 - http://t.co/ZxCynFALOT #openstack #redhat #rhelosp
p58
aVI really enjoy meetings with customers who have realistic cloud business models. #cloud #SalesEngineering #RedHat
p59
aVRT @xsgordon: A Closer Look at RHEL OpenStack Platform 6 - http://t.co/ZxCynFALOT #openstack #redhat #rhelosp
p60
aV#linux #news Are you interested in OpenStack ? Then check this article from #RedHat about their platform http://t.co/1WkBVKYuQk
p61
aVA Closer Look at RHEL OpenStack Platform 6 - http://t.co/ZxCynFALOT #openstack #redhat #rhelosp
p62
aVRT @RedHatJobs: Know someone who'd be a great Red Hatter? We're #hiring for the #RedHat summer #internship program! http://t.co/i13r99SfMs
p63
aVRT @RedHatJobs: Know someone who'd be a great Red Hatter? We're #hiring for the #RedHat summer #internship program! http://t.co/i13r99SfMs
p64
aVRT @RedHatJobs: Know someone who'd be a great Red Hatter? We're #hiring for the #RedHat summer #internship program! http://t.co/i13r99SfMs
p65
aVRT @RedHatJobs: Know someone who'd be a great Red Hatter? We're #hiring for the #RedHat summer #internship program! http://t.co/i13r99SfMs
p66
aVKnow someone who'd be a great Red Hatter? We're #hiring for the #RedHat summer #internship program! http://t.co/i13r99SfMs
p67
aVRT @samadhanam: "@Wikipedia: Congrats!  @nethahussain is a finalist for #RedHat's Women in Open Source Award:\u000ahttp://t.co/VFP5ag5Jit http:/\u2026
p68
aVboasting better controls &amp; security over #containers\u2026#RedHat promotes @Docker as a building block for hybrid #cloud ~ http://t.co/jvd2c94ImI
p69
aVRT @RedHatNL: Don't miss our extensive seminars! Discover all  #RedHat has to offer besides the Linux platform - which is, a lot! http://t.\u2026
p70
aVBetter Risk Management with Apache Hadoop and Red Hat - Upcoming DSC Webinar - http://t.co/hGXRlSHSog #RedHat #Hadoop #Hortonworks
p71
aVRT @samadhanam: "@Wikipedia: Congrats!  @nethahussain is a finalist for #RedHat's Women in Open Source Award:\u000ahttp://t.co/VFP5ag5Jit http:/\u2026
p72
aVRT @RedHatNews: \u201cBecause the #RedHat platform is so robust and scalable, even [user] peaks cause no degradation in service quality" http://\u2026
p73
aVRT @tqvarnst: Don\u2019t pay extra for middleware when upgrading hardware http://t.co/FOyZoZiMsU by @naszcyniec #ibm #middleware #RedHat
p74
aVSystems Engineer - Full-time in Orlando, FL   #websphere #oracle #redhat #linux
p75
aVRT @samadhanam: "@Wikipedia: Congrats!  @nethahussain is a finalist for #RedHat's Women in Open Source Award:\u000ahttp://t.co/VFP5ag5Jit http:/\u2026
p76
aVRT @samadhanam: "@Wikipedia: Congrats!  @nethahussain is a finalist for #RedHat's Women in Open Source Award:\u000ahttp://t.co/VFP5ag5Jit http:/\u2026
p77
aVRT @RedHatGov: The "#RedHat #Cloud for Government: Spend less, do more. Together." webcast is now open! Check it out here: http://t.co/I2yg\u2026
p78
aVRT @samadhanam: "@Wikipedia: Congrats!  @nethahussain is a finalist for #RedHat's Women in Open Source Award:\u000ahttp://t.co/VFP5ag5Jit http:/\u2026
p79
aVRT @samadhanam: "@Wikipedia: Congrats!  @nethahussain is a finalist for #RedHat's Women in Open Source Award:\u000ahttp://t.co/VFP5ag5Jit http:/\u2026
p80
aVRT @samadhanam: "@Wikipedia: Congrats!  @nethahussain is a finalist for #RedHat's Women in Open Source Award:\u000ahttp://t.co/VFP5ag5Jit http:/\u2026
p81
aV"@Wikipedia: Congrats!  @nethahussain is a finalist for #RedHat's Women in Open Source Award:\u000ahttp://t.co/VFP5ag5Jit http://t.co/BVkydXjy8m"
p82
aV#linux #news #RedHat Atomic will deliver #enterprise grade #docker distribution for the #hybrid #cloud http://t.co/OOroyqVPdL
p83
aVRT @makusempanadas: Snow or not, Winter Weather Advisory in effect...MAKUS Empanadas delivers. #MakusEmpanadas #empanadas #RedHat http://t.\u2026
p84
aVSnow or not, Winter Weather Advisory in effect...MAKUS Empanadas delivers. #MakusEmpanadas #empanadas #RedHat http://t.co/sPdX6bFRlf
p85
aVRT @RedHatGov: The "#RedHat #Cloud for Government: Spend less, do more. Together." webcast is now open! Check it out here: http://t.co/I2yg\u2026
p86
aVRT @Wikipedia: Congrats! Wikimedian @nethahussain is a finalist for #RedHat's Women in Open Source Award:\u000ahttp://t.co/jALA8iJVmo http://t.c\u2026
p87
aVThe "#RedHat #Cloud for Government: Spend less, do more. Together." webcast is now open! Check it out here: http://t.co/I2yg9qiivI #govIT
p88
aVRT @Wikipedia: Congrats! Wikimedian @nethahussain is a finalist for #RedHat's Women in Open Source Award:\u000ahttp://t.co/jALA8iJVmo http://t.c\u2026
p89
aVWhen others try setting up #Yarn #namenode #dfs on Ubuntu, why don't I try on my favorite #Redhat #el6 #RHEL6.\u000aWoohoo! #Hadoop #Bigdata
p90
aV#RedHat Integrates More Closely With #OpenStack\u000ahttp://t.co/utkSEkwfFK\u000a#virtualization
p91
aV#RedHat Integrates More Closely With #OpenStack\u000ahttp://t.co/zWhBpvfoTA\u000a#virtualization
p92
aVRHBA-2015:0262-1: preupgrade-assistant-contents bug fix and enhancement update http://t.co/GBJSYkDmUY #redhat #Vulnerability
p93
aVTake a look how Red Hatters in #MountainView celebrated the latest episode of #TheShow: http://t.co/Pff8xHl9cY #RedHat
p94
aVRT @tqvarnst: Don\u2019t pay extra for middleware when upgrading hardware http://t.co/FOyZoZiMsU by @naszcyniec #ibm #middleware #RedHat
p95
aVDon\u2019t pay extra for middleware when upgrading hardware http://t.co/FOyZoZiMsU by @naszcyniec #ibm #middleware #RedHat
p96
aVRT @bbraunphoto: @citizenws looking #amazing in the #sunlight in #losfeliz. #damnyoulookgood #lightpainting #redhat\u2026 https://t.co/vt9iVL35kL
p97
aVRT @DarrenK_VERTEX: @vertex_it can now officially offer a full range of IT Training #AWS #Microsoft #Cisco #RedHat #Linux #VMware #ITIL #JA\u2026
p98
aV@vertex_it can now officially offer a full range of IT Training #AWS #Microsoft #Cisco #RedHat #Linux #VMware #ITIL #JAVA #Citrix #Oracle
p99
aVRT @carolinet186: Proud to work with these great channel leaders! http://t.co/HPqDmca16f  #RedHat #crn #channelchiefs
p100
aV@kooltechies @dguyadeen if your interested in meeting the experts in #openstack and at #Redhat, join us now http://t.co/mAmlrAEbBK #openEMC
p101
aVKnow #Centos #Redhat? Extend your skill become #AWS certified. Our online course now 90% off and is only $19. http://t.co/gD8yubtGE6
p102
aVWhy open access matters: new resource from @opensourceway http://t.co/9xa17kvGJy #opensource #RedHat
p103
aVEvery laptop maker should hire #canonical, #redhat or some other party to give something like a Linux hechser for some/all of their models.
p104
aVRT @Wikimedia: Congrats! Wikimedian @nethahussain is a finalist for #RedHat's Women in Open Source Award:\u000ahttp://t.co/so71FGyDo3 http://t.c\u2026
p105
aVRT @RedHatNL: #RedHat Enterprise Linux: Powering the first #BigData benchmark results with @Cisco http://t.co/0Yo4eZMMKA
p106
aVRT @RedHatNL: Don't miss our extensive seminars! Discover all  #RedHat has to offer besides the Linux platform - which is, a lot! http://t.\u2026
p107
aVRT @RedHatDACH: Five Red Hat Leaders Named 2015 CRN Channel Chiefs [EN] - http://t.co/wjhuoIGOxz #RedHat
p108
aVRT @RedHatJobs: RT @thomasdcameron: Watching @mattdm talk about #Fedora.next. #SCALE13x #RedHat #fb http://t.co/JP2CQLfIVq #RedHat
p109
a.